	.file	"color_table.c"
	.text
.Ltext0:
	.file 0 "/home/munsu/Documents/school/1A/algo/proj_traitement_img/OUAZZANI_LY" "src/color_table.c"
	.section	.rodata.str1.1,"aMS",@progbits,1
.LC0:
	.string	"probleme"
	.text
	.p2align 4
	.globl	create_color_table
	.type	create_color_table, @function
create_color_table:
.LVL0:
.LFB39:
	.file 1 "src/color_table.c"
	.loc 1 46 41 view -0
	.cfi_startproc
	.loc 1 46 41 is_stmt 0 view .LVU1
	endbr64
	.loc 1 47 5 is_stmt 1 view .LVU2
	.loc 1 48 5 view .LVU3
	.loc 1 49 5 view .LVU4
	.loc 1 50 5 view .LVU5
	.loc 1 51 5 view .LVU6
	.loc 1 46 41 is_stmt 0 view .LVU7
	pushq	%r15
	.cfi_def_cfa_offset 16
	.cfi_offset 15, -16
	pushq	%r14
	.cfi_def_cfa_offset 24
	.cfi_offset 14, -24
	pushq	%r13
	.cfi_def_cfa_offset 32
	.cfi_offset 13, -32
	pushq	%r12
	.cfi_def_cfa_offset 40
	.cfi_offset 12, -40
	pushq	%rbp
	.cfi_def_cfa_offset 48
	.cfi_offset 6, -48
	movq	%rdi, %rbp
	pushq	%rbx
	.cfi_def_cfa_offset 56
	.cfi_offset 3, -56
	subq	$24, %rsp
	.cfi_def_cfa_offset 80
	.loc 1 51 14 view .LVU8
	call	image_give_hauteur@PLT
.LVL1:
	.loc 1 51 37 discriminator 1 view .LVU9
	movq	%rbp, %rdi
	.loc 1 51 14 view .LVU10
	movl	%eax, %r14d
	.loc 1 51 37 discriminator 1 view .LVU11
	call	image_give_largeur@PLT
.LVL2:
	.loc 1 58 19 view .LVU12
	movq	%rbp, %rdi
	.loc 1 51 37 discriminator 1 view .LVU13
	movl	%eax, %r12d
.LVL3:
	.loc 1 52 5 is_stmt 1 view .LVU14
	.loc 1 53 5 view .LVU15
	.loc 1 54 5 view .LVU16
	.loc 1 55 5 view .LVU17
	.loc 1 56 5 view .LVU18
	.loc 1 57 5 view .LVU19
	.loc 1 58 5 view .LVU20
	.loc 1 58 19 is_stmt 0 view .LVU21
	call	image_give_largeur@PLT
.LVL4:
	.loc 1 58 42 discriminator 1 view .LVU22
	movq	%rbp, %rdi
	.loc 1 58 19 view .LVU23
	movl	%eax, %ebx
	.loc 1 58 42 discriminator 1 view .LVU24
	call	image_give_dim@PLT
.LVL5:
	.loc 1 58 17 discriminator 2 view .LVU25
	imull	%eax, %ebx
.LVL6:
	.loc 1 59 5 is_stmt 1 view .LVU26
	.loc 1 59 8 is_stmt 0 view .LVU27
	testq	%rbp, %rbp
	je	.L2
	imull	$-1431655765, %ebx, %ebx
.LVL7:
	.loc 1 59 8 view .LVU28
	addl	$715827882, %ebx
	.loc 1 59 21 discriminator 1 view .LVU29
	cmpl	$1431655764, %ebx
	ja	.L2
	.loc 1 67 5 view .LVU30
	movq	%rbp, %rdi
	.loc 1 51 12 discriminator 2 view .LVU31
	imull	%r12d, %r14d
.LVL8:
	.loc 1 64 5 is_stmt 1 view .LVU32
	.loc 1 65 5 view .LVU33
	.loc 1 67 5 view .LVU34
	.loc 1 81 17 is_stmt 0 view .LVU35
	movl	$1, %r15d
	.loc 1 67 5 view .LVU36
	call	image_debut@PLT
.LVL9:
	.loc 1 69 5 is_stmt 1 view .LVU37
	.loc 1 70 5 view .LVU38
	.loc 1 70 11 is_stmt 0 view .LVU39
	movq	%rbp, %rdi
	call	image_lire_pixel@PLT
.LVL10:
	.loc 1 76 13 view .LVU40
	movl	$16, %edi
	.loc 1 70 11 view .LVU41
	movq	%rax, %rbx
.LVL11:
	.loc 1 72 5 is_stmt 1 view .LVU42
	.loc 1 73 5 view .LVU43
	.loc 1 76 5 view .LVU44
	.loc 1 76 13 is_stmt 0 view .LVU45
	call	malloc@PLT
.LVL12:
	.loc 1 77 26 view .LVU46
	movl	$4, %edi
	.loc 1 76 13 view .LVU47
	movq	%rax, %r13
.LVL13:
	.loc 1 77 5 is_stmt 1 view .LVU48
	.loc 1 77 26 is_stmt 0 view .LVU49
	call	malloc@PLT
.LVL14:
	.loc 1 80 54 view .LVU50
	movl	4(%rbx), %edx
	.loc 1 80 74 view .LVU51
	movl	8(%rbx), %ecx
	.loc 1 77 24 discriminator 1 view .LVU52
	movq	%rax, 0(%r13)
	.loc 1 80 5 is_stmt 1 view .LVU53
	.loc 1 80 54 is_stmt 0 view .LVU54
	sarl	$8, %edx
	.loc 1 80 74 view .LVU55
	sall	$16, %ecx
	.loc 1 80 65 view .LVU56
	orl	%ecx, %edx
	orl	(%rbx), %edx
	.loc 1 80 27 view .LVU57
	movl	%edx, (%rax)
	.loc 1 81 5 is_stmt 1 view .LVU58
.LVL15:
	.loc 1 84 5 view .LVU59
	.loc 1 84 16 discriminator 1 view .LVU60
	cmpl	$1, %r14d
	jle	.L5
	.loc 1 84 11 is_stmt 0 view .LVU61
	movl	$1, %r12d
.LVL16:
	.p2align 4,,10
	.p2align 3
.L10:
	.loc 1 86 9 is_stmt 1 view .LVU62
	movq	%rbp, %rdi
	call	image_pixel_suivant@PLT
.LVL17:
	.loc 1 87 9 view .LVU63
	.loc 1 87 15 is_stmt 0 view .LVU64
	movq	%rbp, %rdi
	call	image_lire_pixel@PLT
.LVL18:
	.loc 1 88 9 is_stmt 1 view .LVU65
	.loc 1 92 22 is_stmt 0 view .LVU66
	movq	0(%r13), %rdi
	.loc 1 88 46 view .LVU67
	movl	4(%rax), %ebx
	.loc 1 89 29 view .LVU68
	movl	8(%rax), %edx
	.loc 1 88 46 view .LVU69
	sall	$8, %ebx
	.loc 1 89 29 view .LVU70
	sall	$16, %edx
	.loc 1 88 13 view .LVU71
	orl	%edx, %ebx
	orl	(%rax), %ebx
.LVL19:
	.loc 1 90 9 is_stmt 1 view .LVU72
	.loc 1 90 20 discriminator 1 view .LVU73
	testl	%r15d, %r15d
	jle	.L9
	.loc 1 90 20 is_stmt 0 discriminator 1 view .LVU74
	movslq	%r15d, %rdx
	movq	%rdi, %rax
.LVL20:
	.loc 1 90 20 discriminator 1 view .LVU75
	leaq	(%rdi,%rdx,4), %rdx
	jmp	.L8
.LVL21:
	.p2align 4,,10
	.p2align 3
.L19:
	.loc 1 90 35 is_stmt 1 discriminator 2 view .LVU76
	.loc 1 90 20 discriminator 1 view .LVU77
	addq	$4, %rax
	cmpq	%rdx, %rax
	je	.L9
.L8:
	.loc 1 92 13 view .LVU78
	.loc 1 92 16 is_stmt 0 view .LVU79
	cmpl	%ebx, (%rax)
	jne	.L19
.LVL22:
	.loc 1 104 9 is_stmt 1 view .LVU80
	.loc 1 84 26 discriminator 2 view .LVU81
	addl	$1, %r12d
.LVL23:
	.loc 1 84 16 discriminator 1 view .LVU82
	cmpl	%r12d, %r14d
	jne	.L10
.LVL24:
.L5:
	.loc 1 107 5 view .LVU83
	.loc 1 107 21 is_stmt 0 view .LVU84
	movl	%r15d, 8(%r13)
	.loc 1 108 5 is_stmt 1 view .LVU85
	.loc 1 109 5 is_stmt 0 view .LVU86
	movq	%rbp, %rdi
	.loc 1 108 18 view .LVU87
	movl	$1, 12(%r13)
	.loc 1 109 5 is_stmt 1 view .LVU88
	call	image_debut@PLT
.LVL25:
	.loc 1 110 5 view .LVU89
.L1:
	.loc 1 111 1 is_stmt 0 view .LVU90
	addq	$24, %rsp
	.cfi_remember_state
	.cfi_def_cfa_offset 56
	movq	%r13, %rax
	popq	%rbx
	.cfi_def_cfa_offset 48
	popq	%rbp
	.cfi_def_cfa_offset 40
.LVL26:
	.loc 1 111 1 view .LVU91
	popq	%r12
	.cfi_def_cfa_offset 32
	popq	%r13
	.cfi_def_cfa_offset 24
	popq	%r14
	.cfi_def_cfa_offset 16
	popq	%r15
	.cfi_def_cfa_offset 8
	ret
.LVL27:
	.p2align 4,,10
	.p2align 3
.L9:
	.cfi_restore_state
	.loc 1 99 13 is_stmt 1 view .LVU92
	.loc 1 99 24 is_stmt 0 view .LVU93
	addl	$1, %r15d
.LVL28:
	.loc 1 100 13 is_stmt 1 view .LVU94
	.loc 1 84 26 is_stmt 0 discriminator 2 view .LVU95
	addl	$1, %r12d
.LVL29:
	.loc 1 100 34 view .LVU96
	movslq	%r15d, %rdx
	salq	$2, %rdx
	movq	%rdx, %rsi
	movq	%rdx, 8(%rsp)
	call	realloc@PLT
.LVL30:
	.loc 1 101 47 view .LVU97
	movq	8(%rsp), %rdx
	.loc 1 100 32 discriminator 1 view .LVU98
	movq	%rax, 0(%r13)
	.loc 1 101 13 is_stmt 1 view .LVU99
	.loc 1 101 47 is_stmt 0 view .LVU100
	movl	%ebx, -4(%rax,%rdx)
	.loc 1 104 9 is_stmt 1 view .LVU101
.LVL31:
	.loc 1 84 26 discriminator 2 view .LVU102
	.loc 1 84 16 discriminator 1 view .LVU103
	cmpl	%r12d, %r14d
	jne	.L10
	.loc 1 84 16 is_stmt 0 discriminator 1 view .LVU104
	jmp	.L5
.LVL32:
.L2:
	.loc 1 60 9 is_stmt 1 view .LVU105
.LBB6:
.LBI6:
	.file 2 "/usr/include/x86_64-linux-gnu/bits/stdio2.h"
	.loc 2 84 1 view .LVU106
.LBB7:
	.loc 2 86 3 view .LVU107
	.loc 2 86 10 is_stmt 0 view .LVU108
	leaq	.LC0(%rip), %rsi
	movl	$1, %edi
	xorl	%eax, %eax
.LBE7:
.LBE6:
	.loc 1 61 15 view .LVU109
	xorl	%r13d, %r13d
.LBB9:
.LBB8:
	.loc 2 86 10 view .LVU110
	call	__printf_chk@PLT
.LVL33:
	.loc 2 86 10 view .LVU111
.LBE8:
.LBE9:
	.loc 1 61 9 is_stmt 1 view .LVU112
	.loc 1 61 15 is_stmt 0 view .LVU113
	jmp	.L1
	.cfi_endproc
.LFE39:
	.size	create_color_table, .-create_color_table
	.section	.rodata.str1.8,"aMS",@progbits,1
	.align 8
.LC1:
	.string	"lib\303\251ration de la suite de couleur ainsi que la table tout enti\303\250re"
	.text
	.p2align 4
	.globl	destroy_color_table
	.type	destroy_color_table, @function
destroy_color_table:
.LVL34:
.LFB40:
	.loc 1 114 47 is_stmt 1 view -0
	.cfi_startproc
	.loc 1 114 47 is_stmt 0 view .LVU115
	endbr64
	.loc 1 115 5 is_stmt 1 view .LVU116
	.loc 1 114 47 is_stmt 0 view .LVU117
	pushq	%rbx
	.cfi_def_cfa_offset 16
	.cfi_offset 3, -16
	.loc 1 115 8 view .LVU118
	cmpl	$1, 12(%rdi)
	.loc 1 114 47 view .LVU119
	movq	%rdi, %rbx
	.loc 1 115 8 view .LVU120
	je	.L23
	.loc 1 119 5 is_stmt 1 view .LVU121
	movq	%rbx, %rdi
.LVL35:
	.loc 1 119 5 is_stmt 0 view .LVU122
	call	free@PLT
.LVL36:
	.loc 1 120 1 view .LVU123
	popq	%rbx
	.cfi_remember_state
	.cfi_def_cfa_offset 8
.LVL37:
	.loc 1 120 1 view .LVU124
	ret
.LVL38:
	.p2align 4,,10
	.p2align 3
.L23:
	.cfi_restore_state
	.loc 1 116 9 is_stmt 1 view .LVU125
	movq	(%rdi), %rdi
	call	free@PLT
.LVL39:
	.loc 1 117 9 view .LVU126
.LBB10:
.LBI10:
	.loc 2 84 1 view .LVU127
.LBB11:
	.loc 2 86 3 view .LVU128
	.loc 2 86 10 is_stmt 0 view .LVU129
	leaq	.LC1(%rip), %rsi
	movl	$1, %edi
	xorl	%eax, %eax
	call	__printf_chk@PLT
.LVL40:
	.loc 2 86 10 view .LVU130
.LBE11:
.LBE10:
	.loc 1 119 5 is_stmt 1 view .LVU131
	movq	%rbx, %rdi
	call	free@PLT
.LVL41:
	.loc 1 120 1 is_stmt 0 view .LVU132
	popq	%rbx
	.cfi_def_cfa_offset 8
.LVL42:
	.loc 1 120 1 view .LVU133
	ret
	.cfi_endproc
.LFE40:
	.size	destroy_color_table, .-destroy_color_table
	.section	.rodata.str1.1
.LC2:
	.string	"src/color_table.c"
	.section	.rodata.str1.8
	.align 8
.LC3:
	.string	"offset< table->nb_color && size<=table->nb_color"
	.align 8
.LC4:
	.string	"offset+size <= table->nb_color"
	.text
	.p2align 4
	.globl	color_table_duplicate
	.type	color_table_duplicate, @function
color_table_duplicate:
.LVL43:
.LFB41:
	.loc 1 121 75 is_stmt 1 view -0
	.cfi_startproc
	.loc 1 121 75 is_stmt 0 view .LVU135
	endbr64
	.loc 1 122 3 is_stmt 1 view .LVU136
	.loc 1 121 75 is_stmt 0 view .LVU137
	pushq	%r12
	.cfi_def_cfa_offset 16
	.cfi_offset 12, -16
	pushq	%rbp
	.cfi_def_cfa_offset 24
	.cfi_offset 6, -24
	pushq	%rbx
	.cfi_def_cfa_offset 32
	.cfi_offset 3, -32
	.loc 1 122 16 view .LVU138
	movl	8(%rdi), %eax
	.loc 1 122 27 discriminator 1 view .LVU139
	cmpl	%edx, %eax
	jl	.L28
	movslq	%esi, %rbx
	cmpl	%ebx, %eax
	jle	.L28
	movl	%edx, %ebp
	.loc 1 123 3 is_stmt 1 view .LVU140
	.loc 1 123 9 is_stmt 0 view .LVU141
	leal	(%rbx,%rdx), %edx
.LVL44:
	.loc 1 123 35 view .LVU142
	cmpl	%edx, %eax
	jl	.L33
	movq	%rdi, %r12
	.loc 1 125 4 is_stmt 1 view .LVU143
	.loc 1 126 4 view .LVU144
	.loc 1 126 17 is_stmt 0 view .LVU145
	movl	$16, %edi
.LVL45:
	.loc 1 126 17 view .LVU146
	call	malloc@PLT
.LVL46:
	.loc 1 128 4 is_stmt 1 view .LVU147
	.loc 1 128 50 is_stmt 0 view .LVU148
	movq	(%r12), %rdx
	.loc 1 129 25 view .LVU149
	movl	%ebp, 8(%rax)
	.loc 1 128 50 view .LVU150
	leaq	(%rdx,%rbx,4), %rdx
	.loc 1 130 22 view .LVU151
	movl	$0, 12(%rax)
	.loc 1 128 28 view .LVU152
	movq	%rdx, (%rax)
	.loc 1 129 4 is_stmt 1 view .LVU153
	.loc 1 130 4 view .LVU154
	.loc 1 132 4 view .LVU155
	.loc 1 133 1 is_stmt 0 view .LVU156
	popq	%rbx
	.cfi_remember_state
	.cfi_def_cfa_offset 24
.LVL47:
	.loc 1 133 1 view .LVU157
	popq	%rbp
	.cfi_def_cfa_offset 16
.LVL48:
	.loc 1 133 1 view .LVU158
	popq	%r12
	.cfi_def_cfa_offset 8
.LVL49:
	.loc 1 133 1 view .LVU159
	ret
.LVL50:
.L28:
	.cfi_restore_state
	.loc 1 122 12 is_stmt 1 discriminator 3 view .LVU160
	leaq	__PRETTY_FUNCTION__.2(%rip), %rcx
	movl	$122, %edx
.LVL51:
	.loc 1 122 12 is_stmt 0 discriminator 3 view .LVU161
	leaq	.LC2(%rip), %rsi
.LVL52:
	.loc 1 122 12 discriminator 3 view .LVU162
	leaq	.LC3(%rip), %rdi
.LVL53:
	.loc 1 122 12 discriminator 3 view .LVU163
	call	__assert_fail@PLT
.LVL54:
.L33:
	.loc 1 123 12 is_stmt 1 discriminator 1 view .LVU164
	leaq	__PRETTY_FUNCTION__.2(%rip), %rcx
	movl	$123, %edx
	leaq	.LC2(%rip), %rsi
.LVL55:
	.loc 1 123 12 is_stmt 0 discriminator 1 view .LVU165
	leaq	.LC4(%rip), %rdi
.LVL56:
	.loc 1 123 12 discriminator 1 view .LVU166
	call	__assert_fail@PLT
.LVL57:
	.cfi_endproc
.LFE41:
	.size	color_table_duplicate, .-color_table_duplicate
	.p2align 4
	.globl	color_table_get_nb_color
	.type	color_table_get_nb_color, @function
color_table_get_nb_color:
.LVL58:
.LFB42:
	.loc 1 135 48 is_stmt 1 view -0
	.cfi_startproc
	.loc 1 135 48 is_stmt 0 view .LVU168
	endbr64
	.loc 1 136 4 is_stmt 1 view .LVU169
	.loc 1 136 7 is_stmt 0 view .LVU170
	testq	%rdi, %rdi
	je	.L36
	.loc 1 140 4 is_stmt 1 view .LVU171
	.loc 1 140 16 is_stmt 0 view .LVU172
	movl	8(%rdi), %eax
	ret
.L36:
	.loc 1 137 16 view .LVU173
	movl	$-1, %eax
	.loc 1 141 1 view .LVU174
	ret
	.cfi_endproc
.LFE42:
	.size	color_table_get_nb_color, .-color_table_get_nb_color
	.section	.rodata.str1.1
.LC5:
	.string	"table !=NULL"
.LC6:
	.string	"indice<table->nb_color"
	.text
	.p2align 4
	.globl	color_table_get_color
	.type	color_table_get_color, @function
color_table_get_color:
.LVL59:
.LFB43:
	.loc 1 144 1 is_stmt 1 view -0
	.cfi_startproc
	.loc 1 144 1 is_stmt 0 view .LVU176
	endbr64
	.loc 1 145 4 is_stmt 1 view .LVU177
	.loc 1 144 1 is_stmt 0 view .LVU178
	subq	$8, %rsp
	.cfi_def_cfa_offset 16
	.loc 1 145 47 view .LVU179
	testq	%rdi, %rdi
	je	.L41
	.loc 1 146 4 is_stmt 1 view .LVU180
	.loc 1 146 36 is_stmt 0 view .LVU181
	cmpl	%esi, 8(%rdi)
	jle	.L42
	.loc 1 148 5 is_stmt 1 view .LVU182
	.loc 1 148 35 is_stmt 0 view .LVU183
	movq	(%rdi), %rax
	movslq	%esi, %rsi
	.loc 1 148 35 view .LVU184
	leaq	(%rax,%rsi,4), %rax
	.loc 1 148 44 view .LVU185
	movzbl	(%rax), %ecx
	.loc 1 148 15 view .LVU186
	movl	%ecx, (%rdx)
	.loc 1 149 5 is_stmt 1 view .LVU187
	.loc 1 149 59 is_stmt 0 view .LVU188
	movl	(%rax), %ecx
	movzbl	%ch, %ecx
	movl	%ecx, 4(%rdx)
	.loc 1 149 64 is_stmt 1 view .LVU189
	.loc 1 150 5 view .LVU190
	.loc 1 150 59 is_stmt 0 view .LVU191
	movzbl	2(%rax), %eax
	movl	%eax, 8(%rdx)
	.loc 1 152 1 view .LVU192
	addq	$8, %rsp
	.cfi_remember_state
	.cfi_def_cfa_offset 8
	ret
.L41:
	.cfi_restore_state
	.loc 1 145 24 is_stmt 1 discriminator 1 view .LVU193
	leaq	__PRETTY_FUNCTION__.1(%rip), %rcx
	movl	$145, %edx
.LVL60:
	.loc 1 145 24 is_stmt 0 discriminator 1 view .LVU194
	leaq	.LC2(%rip), %rsi
.LVL61:
	.loc 1 145 24 discriminator 1 view .LVU195
	leaq	.LC5(%rip), %rdi
.LVL62:
	.loc 1 145 24 discriminator 1 view .LVU196
	call	__assert_fail@PLT
.LVL63:
.L42:
	.loc 1 146 13 is_stmt 1 discriminator 1 view .LVU197
	leaq	__PRETTY_FUNCTION__.1(%rip), %rcx
	movl	$146, %edx
.LVL64:
	.loc 1 146 13 is_stmt 0 discriminator 1 view .LVU198
	leaq	.LC2(%rip), %rsi
.LVL65:
	.loc 1 146 13 discriminator 1 view .LVU199
	leaq	.LC6(%rip), %rdi
.LVL66:
	.loc 1 146 13 discriminator 1 view .LVU200
	call	__assert_fail@PLT
.LVL67:
	.cfi_endproc
.LFE43:
	.size	color_table_get_color, .-color_table_get_color
	.section	.rodata.str1.1
.LC7:
	.string	"couleur>=0 && couleur <= 2"
	.text
	.p2align 4
	.globl	color_table_sort
	.type	color_table_sort, @function
color_table_sort:
.LVL68:
.LFB44:
	.loc 1 154 55 is_stmt 1 view -0
	.cfi_startproc
	.loc 1 154 55 is_stmt 0 view .LVU202
	endbr64
	.loc 1 155 4 is_stmt 1 view .LVU203
	.loc 1 154 55 is_stmt 0 view .LVU204
	pushq	%rbp
	.cfi_def_cfa_offset 16
	.cfi_offset 6, -16
	pushq	%rbx
	.cfi_def_cfa_offset 24
	.cfi_offset 3, -24
	subq	$8, %rsp
	.cfi_def_cfa_offset 32
	.loc 1 155 36 view .LVU205
	cmpl	$2, %esi
	ja	.L44
	.loc 1 159 16 discriminator 1 view .LVU206
	cmpl	$1, 8(%rdi)
	movq	%rdi, %rbp
.LVL69:
	.loc 1 159 16 is_stmt 1 discriminator 1 view .LVU207
	jle	.L43
	.loc 1 161 20 is_stmt 0 view .LVU208
	movq	(%rdi), %r9
	.loc 1 164 66 discriminator 1 view .LVU209
	leal	0(,%rsi,8), %ecx
	.loc 1 164 57 discriminator 1 view .LVU210
	movl	$255, %edi
.LVL70:
	.loc 1 159 11 view .LVU211
	movl	$1, %r11d
	.loc 1 164 57 discriminator 1 view .LVU212
	sall	%cl, %edi
	leaq	4(%r9), %r10
.LVL71:
	.p2align 4,,10
	.p2align 3
.L49:
	.loc 1 161 9 is_stmt 1 view .LVU213
	.loc 1 161 13 is_stmt 0 view .LVU214
	movl	(%r10), %ebx
.LVL72:
	.loc 1 162 9 is_stmt 1 view .LVU215
	.loc 1 164 9 view .LVU216
	.loc 1 164 22 view .LVU217
	.loc 1 164 78 is_stmt 0 discriminator 1 view .LVU218
	movl	%edi, %r8d
	movq	%r10, %rax
	andl	%ebx, %r8d
	jmp	.L46
.LVL73:
	.p2align 4,,10
	.p2align 3
.L48:
	.loc 1 167 13 is_stmt 1 view .LVU219
	.loc 1 167 35 is_stmt 0 view .LVU220
	movl	%edx, (%rax)
	.loc 1 168 13 is_stmt 1 view .LVU221
	.loc 1 164 22 view .LVU222
	leaq	-4(%rcx), %rax
	cmpq	%rax, %r9
	je	.L51
.L46:
	.loc 1 164 45 is_stmt 0 discriminator 1 view .LVU223
	movl	-4(%rax), %edx
	movq	%rax, %rcx
	.loc 1 164 51 discriminator 1 view .LVU224
	movl	%edx, %esi
	andl	%edi, %esi
	.loc 1 164 22 discriminator 1 view .LVU225
	cmpl	%r8d, %esi
	jg	.L48
	.loc 1 171 9 is_stmt 1 view .LVU226
	.loc 1 171 31 is_stmt 0 view .LVU227
	movl	%ebx, (%rcx)
	.loc 1 159 35 is_stmt 1 discriminator 2 view .LVU228
	addl	$1, %r11d
.LVL74:
	.loc 1 159 16 discriminator 1 view .LVU229
	addq	$4, %r10
	cmpl	%r11d, 8(%rbp)
	jg	.L49
.LVL75:
.L43:
	.loc 1 173 1 is_stmt 0 view .LVU230
	addq	$8, %rsp
	.cfi_remember_state
	.cfi_def_cfa_offset 24
	popq	%rbx
	.cfi_def_cfa_offset 16
	popq	%rbp
	.cfi_def_cfa_offset 8
.LVL76:
	.loc 1 173 1 view .LVU231
	ret
.LVL77:
	.p2align 4,,10
	.p2align 3
.L51:
	.cfi_restore_state
	.loc 1 173 1 view .LVU232
	movq	%r9, %rcx
	.loc 1 171 9 is_stmt 1 view .LVU233
	.loc 1 159 35 is_stmt 0 discriminator 2 view .LVU234
	addl	$1, %r11d
.LVL78:
	.loc 1 159 16 discriminator 1 view .LVU235
	addq	$4, %r10
	.loc 1 171 31 view .LVU236
	movl	%ebx, (%rcx)
	.loc 1 159 35 is_stmt 1 discriminator 2 view .LVU237
.LVL79:
	.loc 1 159 16 discriminator 1 view .LVU238
	cmpl	%r11d, 8(%rbp)
	jg	.L49
	.loc 1 159 16 is_stmt 0 discriminator 1 view .LVU239
	jmp	.L43
.LVL80:
.L44:
	.loc 1 155 13 is_stmt 1 discriminator 1 view .LVU240
	leaq	__PRETTY_FUNCTION__.0(%rip), %rcx
	movl	$155, %edx
	leaq	.LC2(%rip), %rsi
.LVL81:
	.loc 1 155 13 is_stmt 0 discriminator 1 view .LVU241
	leaq	.LC7(%rip), %rdi
.LVL82:
	.loc 1 155 13 discriminator 1 view .LVU242
	call	__assert_fail@PLT
.LVL83:
	.cfi_endproc
.LFE44:
	.size	color_table_sort, .-color_table_sort
	.p2align 4
	.globl	color_table_give_nb_color
	.type	color_table_give_nb_color, @function
color_table_give_nb_color:
.LFB48:
	.cfi_startproc
	.loc 1 176 5 is_stmt 1 view .LVU243
	endbr64
	testq	%rdi, %rdi
	je	.L56
	movl	8(%rdi), %eax
	ret
.L56:
	movl	$-1, %eax
	ret
	.cfi_endproc
.LFE48:
	.size	color_table_give_nb_color, .-color_table_give_nb_color
	.p2align 4
	.globl	color_table_give_owner
	.type	color_table_give_owner, @function
color_table_give_owner:
.LVL84:
.LFB46:
	.loc 1 184 50 view -0
	.cfi_startproc
	.loc 1 184 50 is_stmt 0 view .LVU245
	endbr64
	.loc 1 185 5 is_stmt 1 view .LVU246
	.loc 1 185 17 is_stmt 0 discriminator 1 view .LVU247
	movl	12(%rdi), %eax
	.loc 1 187 1 view .LVU248
	ret
	.cfi_endproc
.LFE46:
	.size	color_table_give_owner, .-color_table_give_owner
	.section	.rodata
	.align 16
	.type	__PRETTY_FUNCTION__.0, @object
	.size	__PRETTY_FUNCTION__.0, 17
__PRETTY_FUNCTION__.0:
	.string	"color_table_sort"
	.align 16
	.type	__PRETTY_FUNCTION__.1, @object
	.size	__PRETTY_FUNCTION__.1, 22
__PRETTY_FUNCTION__.1:
	.string	"color_table_get_color"
	.align 16
	.type	__PRETTY_FUNCTION__.2, @object
	.size	__PRETTY_FUNCTION__.2, 22
__PRETTY_FUNCTION__.2:
	.string	"color_table_duplicate"
	.text
.Letext0:
	.file 3 "/usr/lib/gcc/x86_64-linux-gnu/13/include/stddef.h"
	.file 4 "include/type_obj.h"
	.file 5 "include/image.h"
	.file 6 "include/color_table.h"
	.file 7 "/usr/include/assert.h"
	.file 8 "/usr/include/x86_64-linux-gnu/bits/stdio2-decl.h"
	.file 9 "/usr/include/stdlib.h"
	.section	.note.GNU-stack,"",@progbits
	.section	.note.gnu.property,"a"
	.align 8
	.long	1f - 0f
	.long	4f - 1f
	.long	5
0:
	.string	"GNU"
1:
	.align 8
	.long	0xc0000002
	.long	3f - 2f
2:
	.long	0x3
3:
	.align 8
4:
