	.file	"kdtree_method.c"
	.text
.Ltext0:
	.file 0 "/home/munsu/Documents/school/1A/algo/proj_traitement_img/OUAZZANI_LY" "src/kdtree_method.c"
	.section	.text.startup,"ax",@progbits
	.p2align 4
	.globl	main
	.type	main, @function
main:
.LVL0:
.LFB39:
	.file 1 "src/kdtree_method.c"
	.loc 1 16 33 view -0
	.cfi_startproc
	.loc 1 16 33 is_stmt 0 view .LVU1
	endbr64
	pushq	%r15
	.cfi_def_cfa_offset 16
	.cfi_offset 15, -16
	movq	%rsi, %r15
	pushq	%r14
	.cfi_def_cfa_offset 24
	.cfi_offset 14, -24
	pushq	%r13
	.cfi_def_cfa_offset 32
	.cfi_offset 13, -32
	pushq	%r12
	.cfi_def_cfa_offset 40
	.cfi_offset 12, -40
	pushq	%rbp
	.cfi_def_cfa_offset 48
	.cfi_offset 6, -48
	pushq	%rbx
	.cfi_def_cfa_offset 56
	.cfi_offset 3, -56
	subq	$72, %rsp
	.cfi_def_cfa_offset 128
	.loc 1 16 33 view .LVU2
	movq	%rsi, 8(%rsp)
	movq	%fs:40, %rax
	movq	%rax, 56(%rsp)
	xorl	%eax, %eax
	.loc 1 17 5 is_stmt 1 view .LVU3
	.loc 1 18 5 view .LVU4
	.loc 1 18 16 is_stmt 0 view .LVU5
	call	FAIRE_image@PLT
.LVL1:
	.loc 1 19 5 view .LVU6
	movq	16(%r15), %rsi
	.loc 1 18 16 view .LVU7
	movq	%rax, %rbx
.LVL2:
	.loc 1 19 5 is_stmt 1 view .LVU8
	movq	%rax, %rdi
	call	image_charger@PLT
.LVL3:
	.loc 1 20 5 view .LVU9
	.loc 1 21 5 view .LVU10
	.loc 1 21 13 is_stmt 0 view .LVU11
	movq	%rbx, %rdi
	call	create_color_table@PLT
.LVL4:
	.loc 1 22 5 view .LVU12
	movq	%rbx, %rdi
	.loc 1 21 13 view .LVU13
	movq	%rax, %rbp
.LVL5:
	.loc 1 22 5 is_stmt 1 view .LVU14
	call	DEFAIRE_image@PLT
.LVL6:
	.loc 1 24 5 view .LVU15
	.loc 1 25 5 view .LVU16
	.loc 1 25 12 is_stmt 0 view .LVU17
	movl	$20, %esi
	movq	%rbp, %rdi
	call	create_kdtree@PLT
.LVL7:
	movq	%rax, %r13
.LVL8:
	.loc 1 26 5 is_stmt 1 view .LVU18
	.loc 1 27 5 view .LVU19
	.loc 1 27 10 is_stmt 0 view .LVU20
	xorl	%eax, %eax
.LVL9:
	.loc 1 27 10 view .LVU21
	call	FAIRE_image@PLT
.LVL10:
	.loc 1 28 5 view .LVU22
	movq	8(%r15), %rsi
	.loc 1 27 10 view .LVU23
	movq	%rax, %rbx
.LVL11:
	.loc 1 28 5 is_stmt 1 view .LVU24
	movq	%rax, %rdi
	call	image_charger@PLT
.LVL12:
	.loc 1 29 5 view .LVU25
	.loc 1 30 5 view .LVU26
	.loc 1 30 17 is_stmt 0 view .LVU27
	movq	%rbx, %rdi
	call	image_give_hauteur@PLT
.LVL13:
	.loc 1 30 41 discriminator 1 view .LVU28
	movq	%rbx, %rdi
	.loc 1 30 17 view .LVU29
	movl	%eax, %r12d
	.loc 1 30 41 discriminator 1 view .LVU30
	call	image_give_largeur@PLT
.LVL14:
	.loc 1 32 5 view .LVU31
	movq	%rbx, %rdi
	.loc 1 30 15 discriminator 2 view .LVU32
	imull	%eax, %r12d
.LVL15:
	.loc 1 31 5 is_stmt 1 view .LVU33
	.loc 1 32 5 view .LVU34
	call	image_debut@PLT
.LVL16:
	.loc 1 33 5 view .LVU35
	.loc 1 34 5 view .LVU36
	.loc 1 35 5 view .LVU37
	.loc 1 35 15 discriminator 1 view .LVU38
	testl	%r12d, %r12d
	jle	.L2
	leaq	32(%rsp), %rax
	.loc 1 35 11 is_stmt 0 view .LVU39
	xorl	%r14d, %r14d
	leaq	24(%rsp), %r15
.LVL17:
	.loc 1 35 11 view .LVU40
	movq	%rax, (%rsp)
	leaq	44(%rsp), %rbp
.LVL18:
	.p2align 4,,10
	.p2align 3
.L3:
.LBB2:
	.loc 1 36 9 is_stmt 1 view .LVU41
	.loc 1 36 16 is_stmt 0 view .LVU42
	movq	$0x000000000, 24(%rsp)
	.loc 1 37 9 is_stmt 1 view .LVU43
	.loc 1 38 17 is_stmt 0 view .LVU44
	movq	%rbx, %rdi
.LBE2:
	.loc 1 35 28 discriminator 3 view .LVU45
	addl	$1, %r14d
.LVL19:
.LBB3:
	.loc 1 37 16 view .LVU46
	movq	$0, 32(%rsp)
	.loc 1 38 9 is_stmt 1 view .LVU47
	.loc 1 38 17 is_stmt 0 view .LVU48
	call	image_lire_pixel@PLT
.LVL20:
	.loc 1 39 9 view .LVU49
	movq	(%rsp), %rcx
	movq	%r15, %r8
	movq	%rbp, %rdx
	.loc 1 38 17 view .LVU50
	movq	%rax, %rsi
.LVL21:
	.loc 1 39 9 is_stmt 1 view .LVU51
	movq	%r13, %rdi
	call	kd_get_nearest_color@PLT
.LVL22:
	.loc 1 40 9 view .LVU52
	movq	%rbp, %rsi
	movq	%rbx, %rdi
	call	image_ecrire_pixel@PLT
.LVL23:
	.loc 1 41 9 view .LVU53
	movq	%rbx, %rdi
	call	image_pixel_suivant@PLT
.LVL24:
.LBE3:
	.loc 1 35 28 discriminator 3 view .LVU54
	.loc 1 35 15 discriminator 1 view .LVU55
	cmpl	%r14d, %r12d
	jne	.L3
.LVL25:
.L2:
	.loc 1 44 5 view .LVU56
	movq	8(%rsp), %rax
	movq	%rbx, %rdi
	movq	24(%rax), %rsi
	call	image_sauvegarder@PLT
.LVL26:
	.loc 1 49 1 view .LVU57
	.loc 1 50 1 is_stmt 0 view .LVU58
	movq	56(%rsp), %rax
	subq	%fs:40, %rax
	jne	.L8
	addq	$72, %rsp
	.cfi_remember_state
	.cfi_def_cfa_offset 56
	xorl	%eax, %eax
	popq	%rbx
	.cfi_def_cfa_offset 48
.LVL27:
	.loc 1 50 1 view .LVU59
	popq	%rbp
	.cfi_def_cfa_offset 40
	popq	%r12
	.cfi_def_cfa_offset 32
.LVL28:
	.loc 1 50 1 view .LVU60
	popq	%r13
	.cfi_def_cfa_offset 24
.LVL29:
	.loc 1 50 1 view .LVU61
	popq	%r14
	.cfi_def_cfa_offset 16
	popq	%r15
	.cfi_def_cfa_offset 8
	ret
.LVL30:
.L8:
	.cfi_restore_state
	.loc 1 50 1 view .LVU62
	call	__stack_chk_fail@PLT
.LVL31:
	.cfi_endproc
.LFE39:
	.size	main, .-main
	.text
.Letext0:
	.file 2 "include/type_obj.h"
	.file 3 "include/image.h"
	.file 4 "include/color_table.h"
	.file 5 "include/kdtree.h"
	.file 6 "include/nearest.h"
	.section	.note.GNU-stack,"",@progbits
	.section	.note.gnu.property,"a"
	.align 8
	.long	1f - 0f
	.long	4f - 1f
	.long	5
0:
	.string	"GNU"
1:
	.align 8
	.long	0xc0000002
	.long	3f - 2f
2:
	.long	0x3
3:
	.align 8
4:
