	.file	"nearest.c"
	.text
.Ltext0:
	.file 0 "/home/munsu/Documents/school/1A/algo/proj_traitement_img/OUAZZANI_LY" "src/nearest.c"
	.p2align 4
	.globl	distance
	.type	distance, @function
distance:
.LVL0:
.LFB53:
	.file 1 "src/nearest.c"
	.loc 1 17 46 view -0
	.cfi_startproc
	.loc 1 17 46 is_stmt 0 view .LVU1
	endbr64
	.loc 1 18 5 is_stmt 1 view .LVU2
	.loc 1 19 5 view .LVU3
	.loc 1 20 5 view .LVU4
.LVL1:
	.loc 1 20 14 discriminator 1 view .LVU5
	.loc 1 21 9 view .LVU6
	.loc 1 21 28 is_stmt 0 view .LVU7
	movl	(%rdi), %eax
	.loc 1 21 13 view .LVU8
	pxor	%xmm0, %xmm0
	.loc 1 21 28 view .LVU9
	subl	(%rsi), %eax
	.loc 1 22 24 view .LVU10
	pxor	%xmm1, %xmm1
	.loc 1 21 13 view .LVU11
	cvtsi2sdl	%eax, %xmm0
.LVL2:
	.loc 1 22 9 is_stmt 1 view .LVU12
	.loc 1 21 28 is_stmt 0 view .LVU13
	movl	4(%rdi), %eax
	subl	4(%rsi), %eax
	.loc 1 22 30 view .LVU14
	mulsd	%xmm0, %xmm0
.LVL3:
	.loc 1 22 24 view .LVU15
	addsd	%xmm0, %xmm1
.LVL4:
	.loc 1 20 18 is_stmt 1 discriminator 3 view .LVU16
	.loc 1 20 14 discriminator 1 view .LVU17
	.loc 1 21 9 view .LVU18
	.loc 1 21 13 is_stmt 0 view .LVU19
	pxor	%xmm0, %xmm0
	cvtsi2sdl	%eax, %xmm0
.LVL5:
	.loc 1 22 9 is_stmt 1 view .LVU20
	.loc 1 21 28 is_stmt 0 view .LVU21
	movl	8(%rdi), %eax
	subl	8(%rsi), %eax
	.loc 1 22 30 view .LVU22
	mulsd	%xmm0, %xmm0
.LVL6:
	.loc 1 22 24 view .LVU23
	addsd	%xmm0, %xmm1
.LVL7:
	.loc 1 20 18 is_stmt 1 discriminator 3 view .LVU24
	.loc 1 20 14 discriminator 1 view .LVU25
	.loc 1 21 9 view .LVU26
	.loc 1 21 13 is_stmt 0 view .LVU27
	pxor	%xmm0, %xmm0
	cvtsi2sdl	%eax, %xmm0
.LVL8:
	.loc 1 22 9 is_stmt 1 view .LVU28
	.loc 1 20 18 discriminator 3 view .LVU29
	.loc 1 20 14 discriminator 1 view .LVU30
	.loc 1 24 5 view .LVU31
	.loc 1 22 30 is_stmt 0 view .LVU32
	mulsd	%xmm0, %xmm0
.LVL9:
	.loc 1 22 24 view .LVU33
	addsd	%xmm1, %xmm0
.LVL10:
	.loc 1 25 1 view .LVU34
	ret
	.cfi_endproc
.LFE53:
	.size	distance, .-distance
	.p2align 4
	.globl	min_dist
	.type	min_dist, @function
min_dist:
.LVL11:
.LFB54:
	.loc 1 28 43 is_stmt 1 view -0
	.cfi_startproc
	.loc 1 28 43 is_stmt 0 view .LVU36
	endbr64
	pushq	%r14
	.cfi_def_cfa_offset 16
	.cfi_offset 14, -16
	movq	%rdi, %r14
	pushq	%r13
	.cfi_def_cfa_offset 24
	.cfi_offset 13, -24
	movq	%rsi, %r13
	pushq	%r12
	.cfi_def_cfa_offset 32
	.cfi_offset 12, -32
	pushq	%rbp
	.cfi_def_cfa_offset 40
	.cfi_offset 6, -40
	pushq	%rbx
	.cfi_def_cfa_offset 48
	.cfi_offset 3, -48
	subq	$48, %rsp
	.cfi_def_cfa_offset 96
	.loc 1 29 24 view .LVU37
	movq	(%rdi), %rdi
.LVL12:
	.loc 1 28 43 view .LVU38
	movq	%fs:40, %rax
	movq	%rax, 40(%rsp)
	xorl	%eax, %eax
	.loc 1 29 5 is_stmt 1 view .LVU39
	.loc 1 34 5 is_stmt 0 view .LVU40
	leaq	28(%rsp), %r12
	.loc 1 29 24 view .LVU41
	call	color_table_get_nb_color@PLT
.LVL13:
	.loc 1 34 5 view .LVU42
	movq	(%r14), %rdi
	movq	%r12, %rdx
	xorl	%esi, %esi
	.loc 1 29 24 view .LVU43
	movl	%eax, %ebp
.LVL14:
	.loc 1 30 5 is_stmt 1 view .LVU44
	.loc 1 31 5 view .LVU45
	.loc 1 32 5 view .LVU46
	.loc 1 34 5 view .LVU47
	call	color_table_get_color@PLT
.LVL15:
	.loc 1 35 5 view .LVU48
.LBB24:
.LBI24:
	.loc 1 17 8 view .LVU49
.LBB25:
	.loc 1 18 5 view .LVU50
	.loc 1 19 5 view .LVU51
	.loc 1 20 5 view .LVU52
	.loc 1 20 14 discriminator 1 view .LVU53
	.loc 1 21 9 view .LVU54
	.loc 1 21 28 is_stmt 0 view .LVU55
	movl	28(%rsp), %eax
	.loc 1 21 13 view .LVU56
	pxor	%xmm0, %xmm0
	.loc 1 21 28 view .LVU57
	subl	0(%r13), %eax
	.loc 1 21 13 view .LVU58
	cvtsi2sdl	%eax, %xmm0
.LVL16:
	.loc 1 22 9 is_stmt 1 view .LVU59
	.loc 1 21 28 is_stmt 0 view .LVU60
	movl	32(%rsp), %eax
	subl	4(%r13), %eax
	.loc 1 22 30 view .LVU61
	mulsd	%xmm0, %xmm0
.LVL17:
	.loc 1 22 24 view .LVU62
	addsd	.LC0(%rip), %xmm0
	movapd	%xmm0, %xmm1
.LVL18:
	.loc 1 20 18 is_stmt 1 discriminator 3 view .LVU63
	.loc 1 20 14 discriminator 1 view .LVU64
	.loc 1 21 9 view .LVU65
	.loc 1 21 13 is_stmt 0 view .LVU66
	pxor	%xmm0, %xmm0
.LVL19:
	.loc 1 21 13 view .LVU67
	cvtsi2sdl	%eax, %xmm0
.LVL20:
	.loc 1 22 9 is_stmt 1 view .LVU68
	.loc 1 21 28 is_stmt 0 view .LVU69
	movl	36(%rsp), %eax
	subl	8(%r13), %eax
	.loc 1 22 30 view .LVU70
	mulsd	%xmm0, %xmm0
.LVL21:
	.loc 1 22 24 view .LVU71
	addsd	%xmm0, %xmm1
.LVL22:
	.loc 1 20 18 is_stmt 1 discriminator 3 view .LVU72
	.loc 1 20 14 discriminator 1 view .LVU73
	.loc 1 21 9 view .LVU74
	.loc 1 21 13 is_stmt 0 view .LVU75
	pxor	%xmm0, %xmm0
	cvtsi2sdl	%eax, %xmm0
.LVL23:
	.loc 1 22 9 is_stmt 1 view .LVU76
	.loc 1 22 30 is_stmt 0 view .LVU77
	mulsd	%xmm0, %xmm0
.LVL24:
	.loc 1 22 24 view .LVU78
	addsd	%xmm1, %xmm0
.LVL25:
	.loc 1 20 18 is_stmt 1 discriminator 3 view .LVU79
	.loc 1 20 14 discriminator 1 view .LVU80
	.loc 1 20 14 is_stmt 0 discriminator 1 view .LVU81
.LBE25:
.LBE24:
	.loc 1 36 14 is_stmt 1 discriminator 1 view .LVU82
	cmpl	$1, %ebp
	jle	.L3
	.loc 1 36 10 is_stmt 0 view .LVU83
	movl	$1, %ebx
.LVL26:
	.p2align 4,,10
	.p2align 3
.L6:
	.loc 1 37 9 view .LVU84
	movq	(%r14), %rdi
	movl	%ebx, %esi
	movq	%r12, %rdx
	movsd	%xmm0, 8(%rsp)
.LVL27:
	.loc 1 37 9 is_stmt 1 view .LVU85
	.loc 1 36 29 is_stmt 0 discriminator 2 view .LVU86
	addl	$1, %ebx
.LVL28:
	.loc 1 37 9 view .LVU87
	call	color_table_get_color@PLT
.LVL29:
	.loc 1 38 9 is_stmt 1 view .LVU88
.LBB26:
.LBI26:
	.loc 1 17 8 view .LVU89
.LBB27:
	.loc 1 18 5 view .LVU90
	.loc 1 19 5 view .LVU91
	.loc 1 20 5 view .LVU92
	.loc 1 20 14 discriminator 1 view .LVU93
	.loc 1 21 9 view .LVU94
	.loc 1 21 28 is_stmt 0 view .LVU95
	movl	28(%rsp), %eax
	.loc 1 21 13 view .LVU96
	pxor	%xmm1, %xmm1
	.loc 1 21 28 view .LVU97
	subl	0(%r13), %eax
	.loc 1 21 13 view .LVU98
	cvtsi2sdl	%eax, %xmm1
.LVL30:
	.loc 1 22 9 is_stmt 1 view .LVU99
	.loc 1 22 24 is_stmt 0 view .LVU100
	pxor	%xmm2, %xmm2
	.loc 1 21 28 view .LVU101
	movl	32(%rsp), %eax
	subl	4(%r13), %eax
.LBE27:
.LBE26:
	.loc 1 40 15 view .LVU102
	movsd	8(%rsp), %xmm0
.LBB29:
.LBB28:
	.loc 1 22 30 view .LVU103
	mulsd	%xmm1, %xmm1
.LVL31:
	.loc 1 22 24 view .LVU104
	addsd	%xmm1, %xmm2
.LVL32:
	.loc 1 20 18 is_stmt 1 discriminator 3 view .LVU105
	.loc 1 20 14 discriminator 1 view .LVU106
	.loc 1 21 9 view .LVU107
	.loc 1 21 13 is_stmt 0 view .LVU108
	pxor	%xmm1, %xmm1
	cvtsi2sdl	%eax, %xmm1
.LVL33:
	.loc 1 22 9 is_stmt 1 view .LVU109
	.loc 1 21 28 is_stmt 0 view .LVU110
	movl	36(%rsp), %eax
	subl	8(%r13), %eax
	.loc 1 22 30 view .LVU111
	mulsd	%xmm1, %xmm1
.LVL34:
	.loc 1 22 24 view .LVU112
	addsd	%xmm1, %xmm2
.LVL35:
	.loc 1 20 18 is_stmt 1 discriminator 3 view .LVU113
	.loc 1 20 14 discriminator 1 view .LVU114
	.loc 1 21 9 view .LVU115
	.loc 1 21 13 is_stmt 0 view .LVU116
	pxor	%xmm1, %xmm1
	cvtsi2sdl	%eax, %xmm1
.LVL36:
	.loc 1 22 9 is_stmt 1 view .LVU117
	.loc 1 22 30 is_stmt 0 view .LVU118
	mulsd	%xmm1, %xmm1
.LVL37:
	.loc 1 22 24 view .LVU119
	addsd	%xmm2, %xmm1
.LVL38:
	.loc 1 20 18 is_stmt 1 discriminator 3 view .LVU120
	.loc 1 20 14 discriminator 1 view .LVU121
	.loc 1 24 5 view .LVU122
	.loc 1 24 5 is_stmt 0 view .LVU123
.LBE28:
.LBE29:
	.loc 1 39 9 is_stmt 1 view .LVU124
	.loc 1 40 15 is_stmt 0 view .LVU125
	minsd	%xmm0, %xmm1
.LVL39:
	.loc 1 40 15 view .LVU126
	movapd	%xmm1, %xmm0
.LVL40:
	.loc 1 36 29 is_stmt 1 discriminator 2 view .LVU127
	.loc 1 36 14 discriminator 1 view .LVU128
	cmpl	%ebx, %ebp
	jne	.L6
.LVL41:
.L3:
	.loc 1 44 1 is_stmt 0 view .LVU129
	movq	40(%rsp), %rax
	subq	%fs:40, %rax
	jne	.L11
	addq	$48, %rsp
	.cfi_remember_state
	.cfi_def_cfa_offset 48
	popq	%rbx
	.cfi_def_cfa_offset 40
	popq	%rbp
	.cfi_def_cfa_offset 32
.LVL42:
	.loc 1 44 1 view .LVU130
	popq	%r12
	.cfi_def_cfa_offset 24
	popq	%r13
	.cfi_def_cfa_offset 16
.LVL43:
	.loc 1 44 1 view .LVU131
	popq	%r14
	.cfi_def_cfa_offset 8
.LVL44:
	.loc 1 44 1 view .LVU132
	ret
.LVL45:
.L11:
	.cfi_restore_state
	.loc 1 44 1 view .LVU133
	call	__stack_chk_fail@PLT
.LVL46:
	.loc 1 44 1 view .LVU134
	.cfi_endproc
.LFE54:
	.size	min_dist, .-min_dist
	.p2align 4
	.globl	min_color
	.type	min_color, @function
min_color:
.LVL47:
.LFB55:
	.loc 1 46 44 is_stmt 1 view -0
	.cfi_startproc
	.loc 1 46 44 is_stmt 0 view .LVU136
	endbr64
	.loc 1 47 5 is_stmt 1 view .LVU137
	.loc 1 46 44 is_stmt 0 view .LVU138
	pushq	%r15
	.cfi_def_cfa_offset 16
	.cfi_offset 15, -16
	pushq	%r14
	.cfi_def_cfa_offset 24
	.cfi_offset 14, -24
	movq	%rdi, %r14
	pushq	%r13
	.cfi_def_cfa_offset 32
	.cfi_offset 13, -32
	movq	%rsi, %r13
	pushq	%r12
	.cfi_def_cfa_offset 40
	.cfi_offset 12, -40
	pushq	%rbp
	.cfi_def_cfa_offset 48
	.cfi_offset 6, -48
	pushq	%rbx
	.cfi_def_cfa_offset 56
	.cfi_offset 3, -56
	subq	$24, %rsp
	.cfi_def_cfa_offset 80
	.loc 1 47 24 view .LVU139
	movq	(%rdi), %rdi
.LVL48:
	.loc 1 47 24 view .LVU140
	call	color_table_get_nb_color@PLT
.LVL49:
	.loc 1 48 22 view .LVU141
	movl	$12, %edi
	.loc 1 47 24 view .LVU142
	movl	%eax, %r12d
.LVL50:
	.loc 1 48 5 is_stmt 1 view .LVU143
	.loc 1 48 22 is_stmt 0 view .LVU144
	call	malloc@PLT
.LVL51:
	.loc 1 53 5 view .LVU145
	movq	(%r14), %rdi
	xorl	%esi, %esi
	.loc 1 48 22 view .LVU146
	movq	%rax, %rbp
.LVL52:
	.loc 1 49 5 is_stmt 1 view .LVU147
	.loc 1 50 5 view .LVU148
	.loc 1 51 5 view .LVU149
	.loc 1 53 5 view .LVU150
	movq	%rax, %rdx
	call	color_table_get_color@PLT
.LVL53:
	.loc 1 54 5 view .LVU151
.LBB30:
.LBI30:
	.loc 1 17 8 view .LVU152
.LBB31:
	.loc 1 18 5 view .LVU153
	.loc 1 19 5 view .LVU154
	.loc 1 20 5 view .LVU155
	.loc 1 20 14 discriminator 1 view .LVU156
	.loc 1 21 9 view .LVU157
	.loc 1 21 28 is_stmt 0 view .LVU158
	movl	0(%rbp), %eax
	.loc 1 21 13 view .LVU159
	pxor	%xmm0, %xmm0
	.loc 1 21 28 view .LVU160
	subl	0(%r13), %eax
	.loc 1 21 13 view .LVU161
	cvtsi2sdl	%eax, %xmm0
.LVL54:
	.loc 1 22 9 is_stmt 1 view .LVU162
	.loc 1 22 24 is_stmt 0 view .LVU163
	pxor	%xmm1, %xmm1
	.loc 1 21 28 view .LVU164
	movl	4(%rbp), %eax
	subl	4(%r13), %eax
	.loc 1 21 13 view .LVU165
	pxor	%xmm2, %xmm2
	.loc 1 22 30 view .LVU166
	mulsd	%xmm0, %xmm0
.LVL55:
	.loc 1 22 24 view .LVU167
	addsd	%xmm0, %xmm1
.LVL56:
	.loc 1 20 18 is_stmt 1 discriminator 3 view .LVU168
	.loc 1 20 14 discriminator 1 view .LVU169
	.loc 1 21 9 view .LVU170
	.loc 1 21 13 is_stmt 0 view .LVU171
	pxor	%xmm0, %xmm0
	cvtsi2sdl	%eax, %xmm0
.LVL57:
	.loc 1 22 9 is_stmt 1 view .LVU172
	.loc 1 21 28 is_stmt 0 view .LVU173
	movl	8(%rbp), %eax
	subl	8(%r13), %eax
	.loc 1 21 13 view .LVU174
	cvtsi2sdl	%eax, %xmm2
	.loc 1 22 30 view .LVU175
	mulsd	%xmm0, %xmm0
.LVL58:
	.loc 1 22 30 view .LVU176
	mulsd	%xmm2, %xmm2
	.loc 1 22 24 view .LVU177
	addsd	%xmm1, %xmm0
.LVL59:
	.loc 1 20 18 is_stmt 1 discriminator 3 view .LVU178
	.loc 1 20 14 discriminator 1 view .LVU179
	.loc 1 21 9 view .LVU180
	.loc 1 22 9 view .LVU181
	.loc 1 22 24 is_stmt 0 view .LVU182
	addsd	%xmm0, %xmm2
.LVL60:
	.loc 1 20 18 is_stmt 1 discriminator 3 view .LVU183
	.loc 1 20 14 discriminator 1 view .LVU184
	.loc 1 20 14 is_stmt 0 discriminator 1 view .LVU185
.LBE31:
.LBE30:
	.loc 1 55 14 is_stmt 1 discriminator 1 view .LVU186
	cmpl	$1, %r12d
	jle	.L16
	.loc 1 55 10 is_stmt 0 view .LVU187
	movl	$1, %ebx
	.loc 1 49 9 view .LVU188
	xorl	%r15d, %r15d
.LVL61:
	.p2align 4,,10
	.p2align 3
.L15:
	.loc 1 56 9 view .LVU189
	movq	(%r14), %rdi
	movl	%ebx, %esi
	movq	%rbp, %rdx
	movsd	%xmm2, 8(%rsp)
.LVL62:
	.loc 1 56 9 is_stmt 1 view .LVU190
	call	color_table_get_color@PLT
.LVL63:
	.loc 1 57 9 view .LVU191
.LBB32:
.LBI32:
	.loc 1 17 8 view .LVU192
.LBB33:
	.loc 1 18 5 view .LVU193
	.loc 1 19 5 view .LVU194
	.loc 1 20 5 view .LVU195
	.loc 1 20 14 discriminator 1 view .LVU196
	.loc 1 21 9 view .LVU197
	.loc 1 21 28 is_stmt 0 view .LVU198
	movl	0(%rbp), %eax
	.loc 1 21 13 view .LVU199
	pxor	%xmm0, %xmm0
	.loc 1 21 28 view .LVU200
	subl	0(%r13), %eax
	.loc 1 21 13 view .LVU201
	cvtsi2sdl	%eax, %xmm0
.LVL64:
	.loc 1 22 9 is_stmt 1 view .LVU202
	.loc 1 22 24 is_stmt 0 view .LVU203
	pxor	%xmm1, %xmm1
	.loc 1 21 28 view .LVU204
	movl	4(%rbp), %eax
	subl	4(%r13), %eax
.LBE33:
.LBE32:
	.loc 1 58 11 view .LVU205
	movsd	8(%rsp), %xmm2
.LBB35:
.LBB34:
	.loc 1 22 30 view .LVU206
	mulsd	%xmm0, %xmm0
.LVL65:
	.loc 1 22 24 view .LVU207
	addsd	%xmm0, %xmm1
.LVL66:
	.loc 1 20 18 is_stmt 1 discriminator 3 view .LVU208
	.loc 1 20 14 discriminator 1 view .LVU209
	.loc 1 21 9 view .LVU210
	.loc 1 21 13 is_stmt 0 view .LVU211
	pxor	%xmm0, %xmm0
	cvtsi2sdl	%eax, %xmm0
.LVL67:
	.loc 1 22 9 is_stmt 1 view .LVU212
	.loc 1 21 28 is_stmt 0 view .LVU213
	movl	8(%rbp), %eax
	subl	8(%r13), %eax
	.loc 1 22 30 view .LVU214
	mulsd	%xmm0, %xmm0
.LVL68:
	.loc 1 22 24 view .LVU215
	addsd	%xmm0, %xmm1
.LVL69:
	.loc 1 20 18 is_stmt 1 discriminator 3 view .LVU216
	.loc 1 20 14 discriminator 1 view .LVU217
	.loc 1 21 9 view .LVU218
	.loc 1 21 13 is_stmt 0 view .LVU219
	pxor	%xmm0, %xmm0
	cvtsi2sdl	%eax, %xmm0
.LVL70:
	.loc 1 22 9 is_stmt 1 view .LVU220
	.loc 1 22 30 is_stmt 0 view .LVU221
	mulsd	%xmm0, %xmm0
.LVL71:
	.loc 1 22 24 view .LVU222
	addsd	%xmm1, %xmm0
.LVL72:
	.loc 1 20 18 is_stmt 1 discriminator 3 view .LVU223
	.loc 1 20 14 discriminator 1 view .LVU224
	.loc 1 24 5 view .LVU225
	.loc 1 24 5 is_stmt 0 view .LVU226
.LBE34:
.LBE35:
	.loc 1 58 9 is_stmt 1 view .LVU227
	.loc 1 58 11 is_stmt 0 view .LVU228
	comisd	%xmm0, %xmm2
	.loc 1 60 19 view .LVU229
	minsd	%xmm2, %xmm0
.LVL73:
	.loc 1 60 19 view .LVU230
	cmova	%ebx, %r15d
.LVL74:
	.loc 1 55 29 discriminator 2 view .LVU231
	addl	$1, %ebx
.LVL75:
	.loc 1 60 19 view .LVU232
	movapd	%xmm0, %xmm2
.LVL76:
	.loc 1 55 29 is_stmt 1 discriminator 2 view .LVU233
	.loc 1 55 14 discriminator 1 view .LVU234
	cmpl	%ebx, %r12d
	jne	.L15
.LVL77:
.L13:
	.loc 1 63 5 view .LVU235
	movq	(%r14), %rdi
	movq	%rbp, %rdx
	movl	%r15d, %esi
	call	color_table_get_color@PLT
.LVL78:
	.loc 1 64 5 view .LVU236
	.loc 1 65 1 is_stmt 0 view .LVU237
	addq	$24, %rsp
	.cfi_remember_state
	.cfi_def_cfa_offset 56
	movq	%rbp, %rax
	popq	%rbx
	.cfi_def_cfa_offset 48
	popq	%rbp
	.cfi_def_cfa_offset 40
.LVL79:
	.loc 1 65 1 view .LVU238
	popq	%r12
	.cfi_def_cfa_offset 32
.LVL80:
	.loc 1 65 1 view .LVU239
	popq	%r13
	.cfi_def_cfa_offset 24
.LVL81:
	.loc 1 65 1 view .LVU240
	popq	%r14
	.cfi_def_cfa_offset 16
.LVL82:
	.loc 1 65 1 view .LVU241
	popq	%r15
	.cfi_def_cfa_offset 8
	ret
.LVL83:
.L16:
	.cfi_restore_state
	.loc 1 49 9 view .LVU242
	xorl	%r15d, %r15d
	jmp	.L13
	.cfi_endproc
.LFE55:
	.size	min_color, .-min_color
	.section	.rodata.str1.1,"aMS",@progbits,1
.LC1:
	.string	"adresse nulle"
	.text
	.p2align 4
	.globl	kd_get_nearest_color
	.type	kd_get_nearest_color, @function
kd_get_nearest_color:
.LVL84:
.LFB56:
	.loc 1 69 106 is_stmt 1 view -0
	.cfi_startproc
	.loc 1 69 106 is_stmt 0 view .LVU244
	endbr64
	.loc 1 70 5 is_stmt 1 view .LVU245
	.loc 1 71 5 view .LVU246
	.loc 1 72 5 view .LVU247
	.loc 1 74 5 view .LVU248
	.loc 1 75 5 view .LVU249
	.loc 1 76 5 view .LVU250
	.loc 1 77 5 view .LVU251
	.loc 1 78 5 view .LVU252
	.loc 1 79 5 view .LVU253
	.loc 1 80 5 view .LVU254
	.loc 1 83 5 view .LVU255
	.loc 1 83 7 is_stmt 0 view .LVU256
	testq	%rdi, %rdi
	je	.L52
	.loc 1 69 106 view .LVU257
	pushq	%r14
	.cfi_def_cfa_offset 16
	.cfi_offset 14, -16
	movq	%r8, %r14
	pushq	%r13
	.cfi_def_cfa_offset 24
	.cfi_offset 13, -24
	movq	%rsi, %r13
	pushq	%r12
	.cfi_def_cfa_offset 32
	.cfi_offset 12, -32
	movq	%rdx, %r12
	pushq	%rbp
	.cfi_def_cfa_offset 40
	.cfi_offset 6, -40
	movq	%rcx, %rbp
	pushq	%rbx
	.cfi_def_cfa_offset 48
	.cfi_offset 3, -48
	movq	%rdi, %rbx
	subq	$16, %rsp
	.cfi_def_cfa_offset 64
.LVL85:
	.p2align 4,,10
	.p2align 3
.L21:
	.loc 1 88 5 is_stmt 1 view .LVU258
	.loc 1 88 14 is_stmt 0 view .LVU259
	movq	(%rbx), %rdi
	call	color_table_get_nb_color@PLT
.LVL86:
	.loc 1 89 5 is_stmt 1 view .LVU260
	.loc 1 90 5 view .LVU261
	.loc 1 95 5 view .LVU262
	.loc 1 95 9 is_stmt 0 view .LVU263
	movq	32(%rbx), %rax
.LVL87:
.LBB36:
.LBI36:
	.loc 1 17 8 is_stmt 1 view .LVU264
.LBB37:
	.loc 1 18 5 view .LVU265
	.loc 1 19 5 view .LVU266
	.loc 1 20 5 view .LVU267
	.loc 1 20 14 discriminator 1 view .LVU268
	.loc 1 21 9 view .LVU269
	.loc 1 21 13 is_stmt 0 view .LVU270
	pxor	%xmm0, %xmm0
	.loc 1 22 24 view .LVU271
	pxor	%xmm1, %xmm1
.LBE37:
.LBE36:
	.loc 1 96 29 view .LVU272
	movslq	24(%rbx), %rcx
.LBB40:
.LBB38:
	.loc 1 21 28 view .LVU273
	movl	(%rax), %edx
	subl	0(%r13), %edx
	.loc 1 21 13 view .LVU274
	cvtsi2sdl	%edx, %xmm0
.LVL88:
	.loc 1 22 9 is_stmt 1 view .LVU275
	.loc 1 21 28 is_stmt 0 view .LVU276
	movl	4(%rax), %edx
	subl	4(%r13), %edx
	.loc 1 22 30 view .LVU277
	mulsd	%xmm0, %xmm0
.LVL89:
	.loc 1 22 24 view .LVU278
	addsd	%xmm0, %xmm1
.LVL90:
	.loc 1 20 18 is_stmt 1 discriminator 3 view .LVU279
	.loc 1 20 14 discriminator 1 view .LVU280
	.loc 1 21 9 view .LVU281
	.loc 1 21 13 is_stmt 0 view .LVU282
	pxor	%xmm0, %xmm0
	cvtsi2sdl	%edx, %xmm0
.LVL91:
	.loc 1 22 9 is_stmt 1 view .LVU283
	.loc 1 21 28 is_stmt 0 view .LVU284
	movl	8(%rax), %edx
	subl	8(%r13), %edx
	.loc 1 22 30 view .LVU285
	mulsd	%xmm0, %xmm0
.LVL92:
	.loc 1 22 24 view .LVU286
	addsd	%xmm0, %xmm1
.LVL93:
	.loc 1 20 18 is_stmt 1 discriminator 3 view .LVU287
	.loc 1 20 14 discriminator 1 view .LVU288
	.loc 1 21 9 view .LVU289
	.loc 1 21 13 is_stmt 0 view .LVU290
	pxor	%xmm0, %xmm0
	cvtsi2sdl	%edx, %xmm0
.LVL94:
	.loc 1 22 9 is_stmt 1 view .LVU291
.LBE38:
.LBE40:
	.loc 1 96 44 is_stmt 0 view .LVU292
	movl	(%rax,%rcx,4), %edx
	subl	0(%r13,%rcx,4), %edx
	.loc 1 100 7 view .LVU293
	cmpq	$0, 16(%rbx)
.LBB41:
.LBB39:
	.loc 1 22 30 view .LVU294
	mulsd	%xmm0, %xmm0
.LVL95:
	.loc 1 22 24 view .LVU295
	addsd	%xmm0, %xmm1
.LVL96:
	.loc 1 20 18 is_stmt 1 discriminator 3 view .LVU296
	.loc 1 20 14 discriminator 1 view .LVU297
	.loc 1 24 5 view .LVU298
	.loc 1 24 5 is_stmt 0 view .LVU299
.LBE39:
.LBE41:
	.loc 1 96 5 is_stmt 1 view .LVU300
	.loc 1 96 16 is_stmt 0 view .LVU301
	pxor	%xmm0, %xmm0
	cvtsi2sdl	%edx, %xmm0
.LVL97:
	.loc 1 97 5 is_stmt 1 view .LVU302
	.loc 1 97 22 is_stmt 0 view .LVU303
	mulsd	%xmm0, %xmm0
.LVL98:
	.loc 1 100 5 is_stmt 1 view .LVU304
	.loc 1 100 7 is_stmt 0 view .LVU305
	je	.L53
.L23:
	.loc 1 113 5 is_stmt 1 view .LVU306
	.loc 1 113 8 is_stmt 0 view .LVU307
	cmpq	$0, 0(%rbp)
	je	.L29
	.loc 1 113 24 discriminator 1 view .LVU308
	movsd	(%r14), %xmm2
	.loc 1 113 18 discriminator 1 view .LVU309
	comisd	%xmm1, %xmm2
	jbe	.L30
.L29:
	.loc 1 114 9 is_stmt 1 view .LVU310
	.loc 1 114 24 is_stmt 0 view .LVU311
	movsd	%xmm1, (%r14)
	.loc 1 115 9 is_stmt 1 view .LVU312
	.loc 1 115 15 is_stmt 0 view .LVU313
	movq	%rbx, 0(%rbp)
	.loc 1 116 9 is_stmt 1 view .LVU314
.LVL99:
.LBB42:
.LBI42:
	.file 2 "/usr/include/x86_64-linux-gnu/bits/string_fortified.h"
	.loc 2 26 42 view .LVU315
.LBB43:
	.loc 2 29 3 view .LVU316
	.loc 2 29 10 is_stmt 0 discriminator 1 view .LVU317
	movq	(%rax), %rcx
	movq	%rcx, (%r12)
.LVL100:
	.loc 2 29 10 discriminator 1 view .LVU318
	movl	8(%rax), %eax
.LVL101:
	.loc 2 29 10 discriminator 1 view .LVU319
	movl	%eax, 8(%r12)
.LVL102:
	.loc 2 29 10 discriminator 1 view .LVU320
.LBE43:
.LBE42:
	.loc 1 121 8 view .LVU321
	movsd	(%r14), %xmm2
.L30:
	.loc 1 121 4 is_stmt 1 view .LVU322
	.loc 1 121 7 is_stmt 0 view .LVU323
	pxor	%xmm3, %xmm3
	ucomisd	%xmm3, %xmm2
	jp	.L40
	je	.L20
.L40:
	.loc 1 125 4 is_stmt 1 view .LVU324
	.loc 1 125 4 is_stmt 0 discriminator 1 view .LVU325
	movq	8(%rbx), %rax
	.loc 1 125 4 discriminator 2 view .LVU326
	movq	16(%rbx), %rdi
	.loc 1 125 4 view .LVU327
	testl	%edx, %edx
	jle	.L54
	.loc 1 125 4 discriminator 4 view .LVU328
	movq	%r14, %r8
	movq	%rbp, %rcx
	movq	%r12, %rdx
	movq	%r13, %rsi
	movq	%rax, %rdi
	movsd	%xmm0, 8(%rsp)
	call	kd_get_nearest_color
.LVL103:
	.loc 1 130 4 is_stmt 1 view .LVU329
	.loc 1 130 7 is_stmt 0 view .LVU330
	movsd	8(%rsp), %xmm0
	comisd	(%r14), %xmm0
	jnb	.L20
	.loc 1 136 4 discriminator 1 view .LVU331
	movq	16(%rbx), %rbx
.L35:
	.loc 1 70 5 is_stmt 1 view .LVU332
	.loc 1 71 5 view .LVU333
	.loc 1 72 5 view .LVU334
	.loc 1 74 5 view .LVU335
	.loc 1 75 5 view .LVU336
	.loc 1 76 5 view .LVU337
	.loc 1 77 5 view .LVU338
	.loc 1 78 5 view .LVU339
	.loc 1 79 5 view .LVU340
	.loc 1 80 5 view .LVU341
	.loc 1 83 5 view .LVU342
	.loc 1 83 7 is_stmt 0 view .LVU343
	testq	%rbx, %rbx
	jne	.L21
	.loc 1 84 9 is_stmt 1 view .LVU344
.LVL104:
.LBB44:
.LBI44:
	.file 3 "/usr/include/x86_64-linux-gnu/bits/stdio2.h"
	.loc 3 84 1 view .LVU345
.LBB45:
	.loc 3 86 3 view .LVU346
.LBE45:
.LBE44:
	.loc 1 140 1 is_stmt 0 view .LVU347
	addq	$16, %rsp
	.cfi_remember_state
	.cfi_def_cfa_offset 48
.LBB49:
.LBB46:
	.loc 3 86 10 view .LVU348
	leaq	.LC1(%rip), %rdi
.LBE46:
.LBE49:
	.loc 1 140 1 view .LVU349
	popq	%rbx
	.cfi_restore 3
	.cfi_def_cfa_offset 40
	popq	%rbp
	.cfi_restore 6
	.cfi_def_cfa_offset 32
.LVL105:
	.loc 1 140 1 view .LVU350
	popq	%r12
	.cfi_restore 12
	.cfi_def_cfa_offset 24
.LVL106:
	.loc 1 140 1 view .LVU351
	popq	%r13
	.cfi_restore 13
	.cfi_def_cfa_offset 16
.LVL107:
	.loc 1 140 1 view .LVU352
	popq	%r14
	.cfi_restore 14
	.cfi_def_cfa_offset 8
.LVL108:
.LBB50:
.LBB47:
	.loc 3 86 10 view .LVU353
	jmp	puts@PLT
.LVL109:
	.p2align 4,,10
	.p2align 3
.L53:
	.cfi_restore_state
	.loc 3 86 10 view .LVU354
.LBE47:
.LBE50:
	.loc 1 100 26 discriminator 1 view .LVU355
	cmpq	$0, 8(%rbx)
	jne	.L23
	.loc 1 101 15 view .LVU356
	movq	%r13, %rsi
	movq	%rbx, %rdi
	movsd	%xmm1, 8(%rsp)
	.loc 1 101 9 is_stmt 1 view .LVU357
	.loc 1 101 15 is_stmt 0 view .LVU358
	call	min_dist
.LVL110:
	.loc 1 102 9 is_stmt 1 view .LVU359
	.loc 1 102 12 is_stmt 0 view .LVU360
	movsd	8(%rsp), %xmm1
	.loc 1 101 13 discriminator 1 view .LVU361
	cvttsd2sil	%xmm0, %eax
	.loc 1 102 17 view .LVU362
	pxor	%xmm0, %xmm0
	cvtsi2sdl	%eax, %xmm0
	.loc 1 102 12 view .LVU363
	comisd	%xmm0, %xmm1
	ja	.L55
.L24:
.LVL111:
	.loc 1 106 9 is_stmt 1 view .LVU364
	.loc 1 106 12 is_stmt 0 view .LVU365
	movsd	(%r14), %xmm0
	comisd	%xmm1, %xmm0
	ja	.L56
.LVL112:
.L20:
	.loc 1 140 1 view .LVU366
	addq	$16, %rsp
	.cfi_remember_state
	.cfi_def_cfa_offset 48
	popq	%rbx
	.cfi_def_cfa_offset 40
	popq	%rbp
	.cfi_def_cfa_offset 32
.LVL113:
	.loc 1 140 1 view .LVU367
	popq	%r12
	.cfi_def_cfa_offset 24
.LVL114:
	.loc 1 140 1 view .LVU368
	popq	%r13
	.cfi_def_cfa_offset 16
.LVL115:
	.loc 1 140 1 view .LVU369
	popq	%r14
	.cfi_def_cfa_offset 8
.LVL116:
	.loc 1 140 1 view .LVU370
	ret
.LVL117:
	.p2align 4,,10
	.p2align 3
.L54:
	.cfi_restore_state
	.loc 1 125 4 discriminator 4 view .LVU371
	movq	%r14, %r8
	movq	%rbp, %rcx
	movq	%r12, %rdx
	movq	%r13, %rsi
	movsd	%xmm0, 8(%rsp)
	call	kd_get_nearest_color
.LVL118:
	.loc 1 130 4 is_stmt 1 view .LVU372
	.loc 1 130 7 is_stmt 0 view .LVU373
	movsd	8(%rsp), %xmm0
	comisd	(%r14), %xmm0
	jnb	.L20
	.loc 1 136 4 discriminator 2 view .LVU374
	movq	8(%rbx), %rbx
	jmp	.L35
.LVL119:
.L56:
	.loc 1 107 13 is_stmt 1 view .LVU375
.LBB51:
.LBI51:
	.loc 2 26 42 view .LVU376
.LBB52:
	.loc 2 29 3 view .LVU377
.LBE52:
.LBE51:
	.loc 1 107 36 is_stmt 0 view .LVU378
	movq	0(%rbp), %rax
.LBB54:
.LBB53:
	.loc 2 29 10 discriminator 1 view .LVU379
	movq	32(%rax), %rax
	movq	(%rax), %rdx
	movq	%rdx, (%r12)
.LVL120:
	.loc 2 29 10 discriminator 1 view .LVU380
	movl	8(%rax), %eax
.LVL121:
	.loc 2 29 10 discriminator 1 view .LVU381
	movl	%eax, 8(%r12)
.LVL122:
	.loc 2 29 10 view .LVU382
	jmp	.L20
.LVL123:
.L55:
	.loc 2 29 10 view .LVU383
.LBE53:
.LBE54:
	.loc 1 104 26 view .LVU384
	movq	%r13, %rsi
	movq	%rbx, %rdi
	movsd	%xmm0, 8(%rsp)
.LVL124:
	.loc 1 103 13 is_stmt 1 view .LVU385
	.loc 1 104 13 view .LVU386
	.loc 1 104 26 is_stmt 0 view .LVU387
	call	min_color
.LVL125:
	.loc 1 103 15 view .LVU388
	movsd	8(%rsp), %xmm0
	movapd	%xmm0, %xmm1
	jmp	.L24
.LVL126:
.L52:
	.cfi_def_cfa_offset 8
	.cfi_restore 3
	.cfi_restore 6
	.cfi_restore 12
	.cfi_restore 13
	.cfi_restore 14
	.loc 1 84 9 is_stmt 1 view .LVU389
.LBB55:
	.loc 3 84 1 view .LVU390
.LBB48:
	.loc 3 86 3 view .LVU391
	.loc 3 86 10 is_stmt 0 view .LVU392
	leaq	.LC1(%rip), %rdi
.LVL127:
	.loc 3 86 10 view .LVU393
	jmp	puts@PLT
.LVL128:
	.loc 3 86 10 view .LVU394
.LBE48:
.LBE55:
	.cfi_endproc
.LFE56:
	.size	kd_get_nearest_color, .-kd_get_nearest_color
	.section	.rodata.cst8,"aM",@progbits,8
	.align 8
.LC0:
	.long	0
	.long	0
	.text
.Letext0:
	.file 4 "/usr/lib/gcc/x86_64-linux-gnu/13/include/stddef.h"
	.file 5 "include/color_table.h"
	.file 6 "include/kdtree.h"
	.file 7 "/usr/include/x86_64-linux-gnu/bits/stdio2-decl.h"
	.file 8 "/usr/include/stdlib.h"
	.file 9 "<built-in>"
	.section	.note.GNU-stack,"",@progbits
	.section	.note.gnu.property,"a"
	.align 8
	.long	1f - 0f
	.long	4f - 1f
	.long	5
0:
	.string	"GNU"
1:
	.align 8
	.long	0xc0000002
	.long	3f - 2f
2:
	.long	0x3
3:
	.align 8
4:
